; ModuleID = 'source-C-CXX/49/1932.cpp'
source_filename = "source-C-CXX/49/1932.cpp"
target datalayout = "e-m:e-p270:32:32-p271:32:32-p272:64:64-i64:64-f80:128-n8:16:32:64-S128"
target triple = "x86_64-pc-linux-gnu"

%"class.std::ios_base::Init" = type { i8 }
%"class.std::basic_istream" = type { i32 (...)**, i64, %"class.std::basic_ios" }
%"class.std::basic_ios" = type { %"class.std::ios_base", %"class.std::basic_ostream"*, i8, i8, %"class.std::basic_streambuf"*, %"class.std::ctype"*, %"class.std::num_put"*, %"class.std::num_get"* }
%"class.std::ios_base" = type { i32 (...)**, i64, i64, i32, i32, i32, %"struct.std::ios_base::_Callback_list"*, %"struct.std::ios_base::_Words", [8 x %"struct.std::ios_base::_Words"], i32, %"struct.std::ios_base::_Words"*, %"class.std::locale" }
%"struct.std::ios_base::_Callback_list" = type { %"struct.std::ios_base::_Callback_list"*, void (i32, %"class.std::ios_base"*, i32)*, i32, i32 }
%"struct.std::ios_base::_Words" = type { i8*, i64 }
%"class.std::locale" = type { %"class.std::locale::_Impl"* }
%"class.std::locale::_Impl" = type { i32, %"class.std::locale::facet"**, i64, %"class.std::locale::facet"**, i8** }
%"class.std::locale::facet" = type <{ i32 (...)**, i32, [4 x i8] }>
%"class.std::basic_ostream" = type { i32 (...)**, %"class.std::basic_ios" }
%"class.std::basic_streambuf" = type { i32 (...)**, i8*, i8*, i8*, i8*, i8*, i8*, %"class.std::locale" }
%"class.std::ctype" = type <{ %"class.std::locale::facet.base", [4 x i8], %struct.__locale_struct*, i8, [7 x i8], i32*, i32*, i16*, i8, [256 x i8], [256 x i8], i8, [6 x i8] }>
%"class.std::locale::facet.base" = type <{ i32 (...)**, i32 }>
%struct.__locale_struct = type { [13 x %struct.__locale_data*], i16*, i32*, i32*, [13 x i8*] }
%struct.__locale_data = type opaque
%"class.std::num_put" = type { %"class.std::locale::facet.base", [4 x i8] }
%"class.std::num_get" = type { %"class.std::locale::facet.base", [4 x i8] }

@_ZStL8__ioinit = internal global %"class.std::ios_base::Init" zeroinitializer, align 1
@__dso_handle = external hidden global i8
@_ZSt3cin = external global %"class.std::basic_istream", align 8
@_ZSt4cout = external global %"class.std::basic_ostream", align 8
@llvm.global_ctors = appending global [1 x { i32, void ()*, i8* }] [{ i32, void ()*, i8* } { i32 65535, void ()* @_GLOBAL__sub_I_1932.cpp, i8* null }]

declare void @_ZNSt8ios_base4InitC1Ev(%"class.std::ios_base::Init"* nonnull align 1 dereferenceable(1)) unnamed_addr #0

; Function Attrs: nounwind
declare void @_ZNSt8ios_base4InitD1Ev(%"class.std::ios_base::Init"* nonnull align 1 dereferenceable(1)) unnamed_addr #1

; Function Attrs: nofree nounwind
declare i32 @__cxa_atexit(void (i8*)*, i8*, i8*) local_unnamed_addr #2

; Function Attrs: mustprogress norecurse sspstrong uwtable
define dso_local i32 @main() local_unnamed_addr #3 {
  %1 = alloca [12 x i32], align 16
  %2 = alloca i32, align 4
  %3 = bitcast [12 x i32]* %1 to i8*
  call void @llvm.lifetime.start.p0i8(i64 48, i8* nonnull %3) #8
  call void @llvm.memset.p0i8.i64(i8* noundef nonnull align 16 dereferenceable(48) %3, i8 0, i64 48, i1 false)
  %4 = bitcast i32* %2 to i8*
  call void @llvm.lifetime.start.p0i8(i64 4, i8* nonnull %4) #8
  %5 = call nonnull align 8 dereferenceable(16) %"class.std::basic_istream"* @_ZNSirsERi(%"class.std::basic_istream"* nonnull align 8 dereferenceable(16) @_ZSt3cin, i32* nonnull align 4 dereferenceable(4) %2)
  %6 = getelementptr inbounds [12 x i32], [12 x i32]* %1, i64 0, i64 0
  %7 = load i32, i32* %6, align 16, !tbaa !5
  %8 = getelementptr inbounds [12 x i32], [12 x i32]* %1, i64 0, i64 1
  %9 = insertelement <4 x i32> poison, i32 %7, i32 0
  %10 = shufflevector <4 x i32> %9, <4 x i32> poison, <4 x i32> zeroinitializer
  %11 = add nsw <4 x i32> %10, <i32 31, i32 59, i32 90, i32 120>
  %12 = bitcast i32* %8 to <4 x i32>*
  store <4 x i32> %11, <4 x i32>* %12, align 4, !tbaa !5
  %13 = getelementptr inbounds [12 x i32], [12 x i32]* %1, i64 0, i64 5
  %14 = add nsw <4 x i32> %10, <i32 151, i32 181, i32 212, i32 243>
  %15 = bitcast i32* %13 to <4 x i32>*
  store <4 x i32> %14, <4 x i32>* %15, align 4, !tbaa !5
  %16 = add nsw i32 %7, 273
  %17 = getelementptr inbounds [12 x i32], [12 x i32]* %1, i64 0, i64 9
  store i32 %16, i32* %17, align 4, !tbaa !5
  %18 = add nsw i32 %7, 304
  %19 = getelementptr inbounds [12 x i32], [12 x i32]* %1, i64 0, i64 10
  store i32 %18, i32* %19, align 8, !tbaa !5
  %20 = add nsw i32 %7, 334
  %21 = getelementptr inbounds [12 x i32], [12 x i32]* %1, i64 0, i64 11
  store i32 %20, i32* %21, align 4, !tbaa !5
  br label %23

22:                                               ; preds = %65
  call void @llvm.lifetime.end.p0i8(i64 4, i8* nonnull %4) #8
  call void @llvm.lifetime.end.p0i8(i64 48, i8* nonnull %3) #8
  ret i32 0

23:                                               ; preds = %68, %0
  %24 = phi i32 [ %7, %0 ], [ %70, %68 ]
  %25 = phi i64 [ 0, %0 ], [ %66, %68 ]
  %26 = add nsw i32 %24, 12
  %27 = srem i32 %26, 7
  %28 = load i32, i32* %2, align 4, !tbaa !5
  %29 = add nsw i32 %27, %28
  switch i32 %29, label %30 [
    i32 5, label %32
    i32 12, label %32
  ]

30:                                               ; preds = %23
  %31 = add nuw nsw i64 %25, 1
  br label %65

32:                                               ; preds = %23, %23
  %33 = add nuw nsw i64 %25, 1
  %34 = trunc i64 %33 to i32
  %35 = call nonnull align 8 dereferenceable(8) %"class.std::basic_ostream"* @_ZNSolsEi(%"class.std::basic_ostream"* nonnull align 8 dereferenceable(8) @_ZSt4cout, i32 %34)
  %36 = bitcast %"class.std::basic_ostream"* %35 to i8**
  %37 = load i8*, i8** %36, align 8, !tbaa !9
  %38 = getelementptr i8, i8* %37, i64 -24
  %39 = bitcast i8* %38 to i64*
  %40 = load i64, i64* %39, align 8
  %41 = bitcast %"class.std::basic_ostream"* %35 to i8*
  %42 = add nsw i64 %40, 240
  %43 = getelementptr inbounds i8, i8* %41, i64 %42
  %44 = bitcast i8* %43 to %"class.std::ctype"**
  %45 = load %"class.std::ctype"*, %"class.std::ctype"** %44, align 8, !tbaa !11
  %46 = icmp eq %"class.std::ctype"* %45, null
  br i1 %46, label %47, label %48

47:                                               ; preds = %32
  call void @_ZSt16__throw_bad_castv() #9
  unreachable

48:                                               ; preds = %32
  %49 = getelementptr inbounds %"class.std::ctype", %"class.std::ctype"* %45, i64 0, i32 8
  %50 = load i8, i8* %49, align 8, !tbaa !15
  %51 = icmp eq i8 %50, 0
  br i1 %51, label %55, label %52

52:                                               ; preds = %48
  %53 = getelementptr inbounds %"class.std::ctype", %"class.std::ctype"* %45, i64 0, i32 9, i64 10
  %54 = load i8, i8* %53, align 1, !tbaa !17
  br label %61

55:                                               ; preds = %48
  call void @_ZNKSt5ctypeIcE13_M_widen_initEv(%"class.std::ctype"* nonnull align 8 dereferenceable(570) %45)
  %56 = bitcast %"class.std::ctype"* %45 to i8 (%"class.std::ctype"*, i8)***
  %57 = load i8 (%"class.std::ctype"*, i8)**, i8 (%"class.std::ctype"*, i8)*** %56, align 8, !tbaa !9
  %58 = getelementptr inbounds i8 (%"class.std::ctype"*, i8)*, i8 (%"class.std::ctype"*, i8)** %57, i64 6
  %59 = load i8 (%"class.std::ctype"*, i8)*, i8 (%"class.std::ctype"*, i8)** %58, align 8
  %60 = call signext i8 %59(%"class.std::ctype"* nonnull align 8 dereferenceable(570) %45, i8 signext 10)
  br label %61

61:                                               ; preds = %52, %55
  %62 = phi i8 [ %54, %52 ], [ %60, %55 ]
  %63 = call nonnull align 8 dereferenceable(8) %"class.std::basic_ostream"* @_ZNSo3putEc(%"class.std::basic_ostream"* nonnull align 8 dereferenceable(8) %35, i8 signext %62)
  %64 = call nonnull align 8 dereferenceable(8) %"class.std::basic_ostream"* @_ZNSo5flushEv(%"class.std::basic_ostream"* nonnull align 8 dereferenceable(8) %63)
  br label %65

65:                                               ; preds = %30, %61
  %66 = phi i64 [ %31, %30 ], [ %33, %61 ]
  %67 = icmp eq i64 %66, 12
  br i1 %67, label %22, label %68, !llvm.loop !18

68:                                               ; preds = %65
  %69 = getelementptr inbounds [12 x i32], [12 x i32]* %1, i64 0, i64 %66
  %70 = load i32, i32* %69, align 4, !tbaa !5
  br label %23
}

; Function Attrs: argmemonly mustprogress nofree nosync nounwind willreturn
declare void @llvm.lifetime.start.p0i8(i64 immarg, i8* nocapture) #4

; Function Attrs: argmemonly mustprogress nofree nounwind willreturn writeonly
declare void @llvm.memset.p0i8.i64(i8* nocapture writeonly, i8, i64, i1 immarg) #5

declare nonnull align 8 dereferenceable(16) %"class.std::basic_istream"* @_ZNSirsERi(%"class.std::basic_istream"* nonnull align 8 dereferenceable(16), i32* nonnull align 4 dereferenceable(4)) local_unnamed_addr #0

; Function Attrs: argmemonly mustprogress nofree nosync nounwind willreturn
declare void @llvm.lifetime.end.p0i8(i64 immarg, i8* nocapture) #4

declare nonnull align 8 dereferenceable(8) %"class.std::basic_ostream"* @_ZNSolsEi(%"class.std::basic_ostream"* nonnull align 8 dereferenceable(8), i32) local_unnamed_addr #0

declare nonnull align 8 dereferenceable(8) %"class.std::basic_ostream"* @_ZNSo3putEc(%"class.std::basic_ostream"* nonnull align 8 dereferenceable(8), i8 signext) local_unnamed_addr #0

declare nonnull align 8 dereferenceable(8) %"class.std::basic_ostream"* @_ZNSo5flushEv(%"class.std::basic_ostream"* nonnull align 8 dereferenceable(8)) local_unnamed_addr #0

; Function Attrs: noreturn
declare void @_ZSt16__throw_bad_castv() local_unnamed_addr #6

declare void @_ZNKSt5ctypeIcE13_M_widen_initEv(%"class.std::ctype"* nonnull align 8 dereferenceable(570)) local_unnamed_addr #0

; Function Attrs: sspstrong uwtable
define internal void @_GLOBAL__sub_I_1932.cpp() #7 section ".text.startup" {
  tail call void @_ZNSt8ios_base4InitC1Ev(%"class.std::ios_base::Init"* nonnull align 1 dereferenceable(1) @_ZStL8__ioinit)
  %1 = tail call i32 @__cxa_atexit(void (i8*)* bitcast (void (%"class.std::ios_base::Init"*)* @_ZNSt8ios_base4InitD1Ev to void (i8*)*), i8* getelementptr inbounds (%"class.std::ios_base::Init", %"class.std::ios_base::Init"* @_ZStL8__ioinit, i64 0, i32 0), i8* nonnull @__dso_handle) #8
  ret void
}


!llvm.module.flags = !{!0, !1, !2, !3}
!llvm.ident = !{!4}

!0 = !{i32 1, !"wchar_size", i32 4}
!1 = !{i32 7, !"PIC Level", i32 2}
!2 = !{i32 7, !"PIE Level", i32 2}
!3 = !{i32 7, !"uwtable", i32 1}
!4 = !{!"clang version 13.0.0"}
!5 = !{!6, !6, i64 0}
!6 = !{!"int", !7, i64 0}
!7 = !{!"omnipotent char", !8, i64 0}
!8 = !{!"Simple C++ TBAA"}
!9 = !{!10, !10, i64 0}
!10 = !{!"vtable pointer", !8, i64 0}
!11 = !{!12, !13, i64 240}
!12 = !{!"_ZTSSt9basic_iosIcSt11char_traitsIcEE", !13, i64 216, !7, i64 224, !14, i64 225, !13, i64 232, !13, i64 240, !13, i64 248, !13, i64 256}
!13 = !{!"any pointer", !7, i64 0}
!14 = !{!"bool", !7, i64 0}
!15 = !{!16, !7, i64 56}
!16 = !{!"_ZTSSt5ctypeIcE", !13, i64 16, !14, i64 24, !13, i64 32, !13, i64 40, !13, i64 48, !7, i64 56, !7, i64 57, !7, i64 313, !7, i64 569}
!17 = !{!7, !7, i64 0}
!18 = distinct !{!18, !19}
!19 = !{!"llvm.loop.mustprogress"}
